target datalayout = "e-m:e-p270:32:32-p271:32:32-p272:64:64-i64:64-i128:128-f80:128-n8:16:32:64-S128"
target triple = "x86_64-pc-linux-gnu"

; Function Attrs: alwaysinline nounwind willreturn memory(none) uwtable
define internal zeroext i16 @av_bswap16(i16 noundef zeroext %0) #6 {
  %2 = alloca i16, align 2
  store i16 %0, ptr %2, align 2, !tbaa !49
  %3 = load i16, ptr %2, align 2, !tbaa !49
  %4 = zext i16 %3 to i32
  %5 = ashr i32 %4, 8
  %6 = load i16, ptr %2, align 2, !tbaa !49
  %7 = zext i16 %6 to i32
  %8 = shl i32 %7, 8
  %9 = or i32 %5, %8
  %10 = trunc i32 %9 to i16
  store i16 %10, ptr %2, align 2, !tbaa !49
  %11 = load i16, ptr %2, align 2, !tbaa !49
  ret i16 %11
}

; Function Attrs: alwaysinline nounwind willreturn memory(none) uwtable
define internal i32 @av_clip_uintp2_c(i32 noundef %0, i32 noundef %1) #6 {
  %3 = alloca i32, align 4
  %4 = alloca i32, align 4
  %5 = alloca i32, align 4
  store i32 %0, ptr %4, align 4, !tbaa !30
  store i32 %1, ptr %5, align 4, !tbaa !30
  %6 = load i32, ptr %4, align 4, !tbaa !30
  %7 = load i32, ptr %5, align 4, !tbaa !30
  %8 = shl i32 1, %7
  %9 = sub i32 %8, 1
  %10 = xor i32 %9, -1
  %11 = and i32 %6, %10
  %12 = icmp ne i32 %11, 0
  br i1 %12, label %13, label %21

13:                                               ; preds = %2
  %14 = load i32, ptr %4, align 4, !tbaa !30
  %15 = xor i32 %14, -1
  %16 = ashr i32 %15, 31
  %17 = load i32, ptr %5, align 4, !tbaa !30
  %18 = shl i32 1, %17
  %19 = sub i32 %18, 1
  %20 = and i32 %16, %19
  store i32 %20, ptr %3, align 4
  br label %23

21:                                               ; preds = %2
  %22 = load i32, ptr %4, align 4, !tbaa !30
  store i32 %22, ptr %3, align 4
  br label %23

23:                                               ; preds = %21, %13
  %24 = load i32, ptr %3, align 4
  ret i32 %24
}

; Function Attrs: nounwind uwtable
define internal void @yuv2p01xcX_c(i32 noundef %0, ptr noundef %1, ptr noundef %2, i32 noundef %3, ptr noundef %4, ptr noundef %5, ptr noundef %6, i32 noundef %7, i32 noundef %8, i32 noundef %9) #4 {
  %11 = alloca i32, align 4
  %12 = alloca ptr, align 8
  %13 = alloca ptr, align 8
  %14 = alloca i32, align 4
  %15 = alloca ptr, align 8
  %16 = alloca ptr, align 8
  %17 = alloca ptr, align 8
  %18 = alloca i32, align 4
  %19 = alloca i32, align 4
  %20 = alloca i32, align 4
  %21 = alloca ptr, align 8
  %22 = alloca i32, align 4
  %23 = alloca i32, align 4
  %24 = alloca i32, align 4
  %25 = alloca i32, align 4
  %26 = alloca i32, align 4
  store i32 %0, ptr %11, align 4, !tbaa !30
  store ptr %1, ptr %12, align 8, !tbaa !46
  store ptr %2, ptr %13, align 8, !tbaa !45
  store i32 %3, ptr %14, align 4, !tbaa !30
  store ptr %4, ptr %15, align 8, !tbaa !47
  store ptr %5, ptr %16, align 8, !tbaa !47
  store ptr %6, ptr %17, align 8, !tbaa !46
  store i32 %7, ptr %18, align 4, !tbaa !30
  store i32 %8, ptr %19, align 4, !tbaa !30
  store i32 %9, ptr %20, align 4, !tbaa !30
  call void @llvm.lifetime.start.p0(i64 8, ptr %21) #8
  %27 = load ptr, ptr %17, align 8, !tbaa !46
  store ptr %27, ptr %21, align 8, !tbaa !45
  call void @llvm.lifetime.start.p0(i64 4, ptr %22) #8
  call void @llvm.lifetime.start.p0(i64 4, ptr %23) #8
  call void @llvm.lifetime.start.p0(i64 4, ptr %24) #8
  %28 = load i32, ptr %19, align 4, !tbaa !30
  %29 = sub nsw i32 27, %28
  store i32 %29, ptr %24, align 4, !tbaa !30
  store i32 0, ptr %22, align 4, !tbaa !30
  br label %30

30:                                               ; preds = %154, %10
  %31 = load i32, ptr %22, align 4, !tbaa !30
  %32 = load i32, ptr %18, align 4, !tbaa !30
  %33 = icmp slt i32 %31, %32
  br i1 %33, label %34, label %157

34:                                               ; preds = %30
  call void @llvm.lifetime.start.p0(i64 4, ptr %25) #8
  %35 = load i32, ptr %24, align 4, !tbaa !30
  %36 = sub nsw i32 %35, 1
  %37 = shl i32 1, %36
  store i32 %37, ptr %25, align 4, !tbaa !30
  call void @llvm.lifetime.start.p0(i64 4, ptr %26) #8
  %38 = load i32, ptr %24, align 4, !tbaa !30
  %39 = sub nsw i32 %38, 1
  %40 = shl i32 1, %39
  store i32 %40, ptr %26, align 4, !tbaa !30
  store i32 0, ptr %23, align 4, !tbaa !30
  br label %41

41:                                               ; preds = %84, %34
  %42 = load i32, ptr %23, align 4, !tbaa !30
  %43 = load i32, ptr %14, align 4, !tbaa !30
  %44 = icmp slt i32 %42, %43
  br i1 %44, label %45, label %87

45:                                               ; preds = %41
  %46 = load ptr, ptr %15, align 8, !tbaa !47
  %47 = load i32, ptr %23, align 4, !tbaa !30
  %48 = sext i32 %47 to i64
  %49 = getelementptr inbounds ptr, ptr %46, i64 %48
  %50 = load ptr, ptr %49, align 8, !tbaa !45
  %51 = load i32, ptr %22, align 4, !tbaa !30
  %52 = sext i32 %51 to i64
  %53 = getelementptr inbounds i16, ptr %50, i64 %52
  %54 = load i16, ptr %53, align 2, !tbaa !49
  %55 = sext i16 %54 to i32
  %56 = load ptr, ptr %13, align 8, !tbaa !45
  %57 = load i32, ptr %23, align 4, !tbaa !30
  %58 = sext i32 %57 to i64
  %59 = getelementptr inbounds i16, ptr %56, i64 %58
  %60 = load i16, ptr %59, align 2, !tbaa !49
  %61 = sext i16 %60 to i32
  %62 = mul nsw i32 %55, %61
  %63 = load i32, ptr %25, align 4, !tbaa !30
  %64 = add nsw i32 %63, %62
  store i32 %64, ptr %25, align 4, !tbaa !30
  %65 = load ptr, ptr %16, align 8, !tbaa !47
  %66 = load i32, ptr %23, align 4, !tbaa !30
  %67 = sext i32 %66 to i64
  %68 = getelementptr inbounds ptr, ptr %65, i64 %67
  %69 = load ptr, ptr %68, align 8, !tbaa !45
  %70 = load i32, ptr %22, align 4, !tbaa !30
  %71 = sext i32 %70 to i64
  %72 = getelementptr inbounds i16, ptr %69, i64 %71
  %73 = load i16, ptr %72, align 2, !tbaa !49
  %74 = sext i16 %73 to i32
  %75 = load ptr, ptr %13, align 8, !tbaa !45
  %76 = load i32, ptr %23, align 4, !tbaa !30
  %77 = sext i32 %76 to i64
  %78 = getelementptr inbounds i16, ptr %75, i64 %77
  %79 = load i16, ptr %78, align 2, !tbaa !49
  %80 = sext i16 %79 to i32
  %81 = mul nsw i32 %74, %80
  %82 = load i32, ptr %26, align 4, !tbaa !30
  %83 = add nsw i32 %82, %81
  store i32 %83, ptr %26, align 4, !tbaa !30
  br label %84

84:                                               ; preds = %45
  %85 = load i32, ptr %23, align 4, !tbaa !30
  %86 = add nsw i32 %85, 1
  store i32 %86, ptr %23, align 4, !tbaa !30
  br label %41, !llvm.loop !109

87:                                               ; preds = %41
  %88 = load i32, ptr %11, align 4, !tbaa !30
  %89 = icmp ne i32 %88, 0
  br i1 %89, label %90, label %105

90:                                               ; preds = %87
  %91 = load i32, ptr %25, align 4, !tbaa !30
  %92 = load i32, ptr %24, align 4, !tbaa !30
  %93 = ashr i32 %91, %92
  %94 = load i32, ptr %19, align 4, !tbaa !30
  %95 = call i32 @av_clip_uintp2_c(i32 noundef %93, i32 noundef %94) #10
  %96 = load i32, ptr %20, align 4, !tbaa !30
  %97 = shl i32 %95, %96
  %98 = trunc i32 %97 to i16
  %99 = call zeroext i16 @av_bswap16(i16 noundef zeroext %98) #10
  %100 = load ptr, ptr %21, align 8, !tbaa !45
  %101 = load i32, ptr %22, align 4, !tbaa !30
  %102 = mul nsw i32 2, %101
  %103 = sext i32 %102 to i64
  %104 = getelementptr inbounds i16, ptr %100, i64 %103
  store i16 %99, ptr %104, align 1, !tbaa !51
  br label %119

105:                                              ; preds = %87
  %106 = load i32, ptr %25, align 4, !tbaa !30
  %107 = load i32, ptr %24, align 4, !tbaa !30
  %108 = ashr i32 %106, %107
  %109 = load i32, ptr %19, align 4, !tbaa !30
  %110 = call i32 @av_clip_uintp2_c(i32 noundef %108, i32 noundef %109) #10
  %111 = load i32, ptr %20, align 4, !tbaa !30
  %112 = shl i32 %110, %111
  %113 = trunc i32 %112 to i16
  %114 = load ptr, ptr %21, align 8, !tbaa !45
  %115 = load i32, ptr %22, align 4, !tbaa !30
  %116 = mul nsw i32 2, %115
  %117 = sext i32 %116 to i64
  %118 = getelementptr inbounds i16, ptr %114, i64 %117
  store i16 %113, ptr %118, align 1, !tbaa !51
  br label %119

119:                                              ; preds = %105, %90
  %120 = load i32, ptr %11, align 4, !tbaa !30
  %121 = icmp ne i32 %120, 0
  br i1 %121, label %122, label %138

122:                                              ; preds = %119
  %123 = load i32, ptr %26, align 4, !tbaa !30
  %124 = load i32, ptr %24, align 4, !tbaa !30
  %125 = ashr i32 %123, %124
  %126 = load i32, ptr %19, align 4, !tbaa !30
  %127 = call i32 @av_clip_uintp2_c(i32 noundef %125, i32 noundef %126) #10
  %128 = load i32, ptr %20, align 4, !tbaa !30
  %129 = shl i32 %127, %128
  %130 = trunc i32 %129 to i16
  %131 = call zeroext i16 @av_bswap16(i16 noundef zeroext %130) #10
  %132 = load ptr, ptr %21, align 8, !tbaa !45
  %133 = load i32, ptr %22, align 4, !tbaa !30
  %134 = mul nsw i32 2, %133
  %135 = add nsw i32 %134, 1
  %136 = sext i32 %135 to i64
  %137 = getelementptr inbounds i16, ptr %132, i64 %136
  store i16 %131, ptr %137, align 1, !tbaa !51
  br label %153

138:                                              ; preds = %119
  %139 = load i32, ptr %26, align 4, !tbaa !30
  %140 = load i32, ptr %24, align 4, !tbaa !30
  %141 = ashr i32 %139, %140
  %142 = load i32, ptr %19, align 4, !tbaa !30
  %143 = call i32 @av_clip_uintp2_c(i32 noundef %141, i32 noundef %142) #10
  %144 = load i32, ptr %20, align 4, !tbaa !30
  %145 = shl i32 %143, %144
  %146 = trunc i32 %145 to i16
  %147 = load ptr, ptr %21, align 8, !tbaa !45
  %148 = load i32, ptr %22, align 4, !tbaa !30
  %149 = mul nsw i32 2, %148
  %150 = add nsw i32 %149, 1
  %151 = sext i32 %150 to i64
  %152 = getelementptr inbounds i16, ptr %147, i64 %151
  store i16 %146, ptr %152, align 1, !tbaa !51
  br label %153

153:                                              ; preds = %138, %122
  call void @llvm.lifetime.end.p0(i64 4, ptr %26) #8
  call void @llvm.lifetime.end.p0(i64 4, ptr %25) #8
  br label %154

154:                                              ; preds = %153
  %155 = load i32, ptr %22, align 4, !tbaa !30
  %156 = add nsw i32 %155, 1
  store i32 %156, ptr %22, align 4, !tbaa !30
  br label %30, !llvm.loop !110

157:                                              ; preds = %30
  call void @llvm.lifetime.end.p0(i64 4, ptr %24) #8
  call void @llvm.lifetime.end.p0(i64 4, ptr %23) #8
  call void @llvm.lifetime.end.p0(i64 4, ptr %22) #8
  call void @llvm.lifetime.end.p0(i64 8, ptr %21) #8
  ret void
}

; Function Attrs: nounwind uwtable
define internal void @yuv2p012cX_BE_c(i32 noundef %0, ptr noundef %1, ptr noundef %2, i32 noundef %3, ptr noundef %4, ptr noundef %5, ptr noundef %6, i32 noundef %7) #4 {
  %9 = alloca i32, align 4
  %10 = alloca ptr, align 8
  %11 = alloca ptr, align 8
  %12 = alloca i32, align 4
  %13 = alloca ptr, align 8
  %14 = alloca ptr, align 8
  %15 = alloca ptr, align 8
  %16 = alloca i32, align 4
  store i32 %0, ptr %9, align 4, !tbaa !30
  store ptr %1, ptr %10, align 8, !tbaa !46
  store ptr %2, ptr %11, align 8, !tbaa !45
  store i32 %3, ptr %12, align 4, !tbaa !30
  store ptr %4, ptr %13, align 8, !tbaa !47
  store ptr %5, ptr %14, align 8, !tbaa !47
  store ptr %6, ptr %15, align 8, !tbaa !46
  store i32 %7, ptr %16, align 4, !tbaa !30
  %17 = load ptr, ptr %10, align 8, !tbaa !46
  %18 = load ptr, ptr %11, align 8, !tbaa !45
  %19 = load i32, ptr %12, align 4, !tbaa !30
  %20 = load ptr, ptr %13, align 8, !tbaa !47
  %21 = load ptr, ptr %14, align 8, !tbaa !47
  %22 = load ptr, ptr %15, align 8, !tbaa !46
  %23 = load i32, ptr %16, align 4, !tbaa !30
  call void @yuv2p01xcX_c(i32 noundef 1, ptr noundef %17, ptr noundef %18, i32 noundef %19, ptr noundef %20, ptr noundef %21, ptr noundef %22, i32 noundef %23, i32 noundef 12, i32 noundef 4)
  ret void
}